; Function Attrs: mustprogress nounwind uwtable
define dso_local void @_ZN5clang21TextDiagnosticPrinterC2ERN4llvm11raw_ostreamEPNS_17DiagnosticOptionsEb(ptr noundef nonnull align 8 dereferenceable(73) %0, ptr noundef nonnull align 8 dereferenceable(48) %1, ptr noundef %2, i1 noundef zeroext %3) unnamed_addr #0 align 2 {
  %5 = getelementptr inbounds nuw i8, ptr %0, i64 8
  store i32 0, ptr %5, align 8
  %6 = getelementptr inbounds nuw i8, ptr %0, i64 12
  store i32 0, ptr %6, align 4
  store ptr getelementptr inbounds inrange(-16, 64) (i8, ptr @_ZTVN5clang21TextDiagnosticPrinterE, i64 16), ptr %0, align 8
  %7 = getelementptr inbounds nuw i8, ptr %0, i64 16
  store ptr %1, ptr %7, align 8
  %8 = getelementptr inbounds nuw i8, ptr %0, i64 24
  store ptr %2, ptr %8, align 8
  %.not.i.i = icmp eq ptr %2, null
  br i1 %.not.i.i, label %_ZN4llvm18IntrusiveRefCntPtrIN5clang17DiagnosticOptionsEEC2EPS2_.exit, label %9

9:                                                ; preds = %4
  %10 = load i32, ptr %2, align 4
  %11 = add i32 %10, 1
  store i32 %11, ptr %2, align 4
  br label %_ZN4llvm18IntrusiveRefCntPtrIN5clang17DiagnosticOptionsEEC2EPS2_.exit

_ZN4llvm18IntrusiveRefCntPtrIN5clang17DiagnosticOptionsEEC2EPS2_.exit: ; preds = %4, %9
  %12 = getelementptr inbounds nuw i8, ptr %0, i64 32
  store ptr null, ptr %12, align 8
  %13 = getelementptr inbounds nuw i8, ptr %0, i64 40
  tail call void @_ZNSt7__cxx1112basic_stringIcSt11char_traitsIcESaIcEEC1Ev(ptr noundef nonnull align 8 dereferenceable(32) %13) #8
  %14 = getelementptr inbounds nuw i8, ptr %0, i64 72
  %15 = zext i1 %3 to i8
  %16 = load i8, ptr %14, align 8
  %17 = and i8 %16, -2
  %18 = or disjoint i8 %17, %15
  store i8 %18, ptr %14, align 8
  ret void
}